Certificate:
    Data:
        Version: 3 (0x2)
        Serial Number:
            a9:32:54:aa:94:87:19:1a:23:dd:95:af:af:ef:c4:7c
        Signature Algorithm: sha256WithRSAEncryption
        Issuer: CN=noakland.com
        Validity
            Not Before: Mar  4 15:23:04 2019 GMT
            Not After : Feb 16 15:23:04 2022 GMT
        Subject: CN=vpn.noakland.com
        Subject Public Key Info:
            Public Key Algorithm: rsaEncryption
                RSA Public-Key: (2048 bit)
                Modulus:
                    00:b8:24:63:e3:87:de:41:3a:4d:9f:1d:f3:04:ac:
                    27:bc:1a:d9:91:2e:2b:5f:4f:7d:a7:1a:a1:dd:17:
                    5a:b6:39:4f:1f:07:48:04:a8:d9:48:a6:ce:e6:4b:
                    c4:3f:a9:67:3f:7f:21:cc:3b:45:05:eb:e7:42:bb:
                    3b:c9:d8:ca:dd:da:57:c0:ab:5e:cd:b7:01:3d:25:
                    e6:4c:d4:13:4e:87:cb:72:2e:28:54:6f:d5:41:e0:
                    8a:cb:7d:04:2b:a4:ff:94:22:14:29:d9:ed:13:6f:
                    d8:17:e5:08:ec:17:e8:b6:64:5d:3c:bb:aa:5c:36:
                    8f:bb:bf:00:8d:3a:37:98:00:a1:ab:69:8d:9a:43:
                    f6:e1:fb:4c:01:f7:0f:38:62:e2:52:92:b6:8c:82:
                    63:87:4b:d4:b8:2a:61:da:f9:77:bd:d6:3d:e2:6f:
                    16:77:63:21:ac:c2:b6:a3:8e:6b:94:b8:d0:2a:ec:
                    b2:82:e9:1f:df:04:57:17:54:4f:c1:fd:ee:10:48:
                    25:4f:7a:06:61:5f:13:7f:1b:fc:c6:1b:7b:94:cf:
                    0c:a0:76:53:57:09:2a:9b:a1:c8:09:ee:d0:2a:e2:
                    bf:ac:3b:cb:66:38:c0:b5:12:d5:25:1a:b4:7c:64:
                    c8:d7:9b:8a:2d:72:dc:bf:34:63:73:c4:12:33:34:
                    3f:3f
                Exponent: 65537 (0x10001)
        X509v3 extensions:
            X509v3 Basic Constraints: 
                CA:FALSE
            X509v3 Subject Key Identifier: 
                F3:82:E0:3B:D2:8A:78:86:87:7B:92:10:A1:55:04:19:71:6D:CA:B7
            X509v3 Authority Key Identifier: 
                keyid:59:FC:2B:31:48:F2:3E:3C:0F:01:F3:2C:7A:4E:4D:64:10:1F:83:E5
                DirName:/CN=noakland.com
                serial:62:19:56:B6:2D:9D:75:9A:A5:69:CB:28:E3:C1:88:4F:A1:11:ED:E0

            X509v3 Extended Key Usage: 
                TLS Web Server Authentication
            X509v3 Key Usage: 
                Digital Signature, Key Encipherment
            X509v3 Subject Alternative Name: 
                DNS:vpn.noakland.com
    Signature Algorithm: sha256WithRSAEncryption
         a0:8e:67:67:3d:10:1f:49:c9:da:1d:8d:e4:b1:ef:ae:f2:57:
         c4:aa:78:80:14:73:6b:3f:11:a2:70:b0:d9:8d:4e:66:9c:ac:
         41:52:6c:d1:51:00:82:23:d5:05:9a:8e:d1:1d:40:8e:1a:36:
         ea:1f:53:31:21:a3:83:90:a1:8a:6b:55:32:3b:d4:7b:cb:97:
         5d:5c:b4:b7:a9:ea:17:9a:f8:93:10:15:77:7d:f5:5e:f9:b8:
         ac:b7:93:1a:ff:ee:9f:7a:fa:4f:bc:9c:1c:74:b9:3f:80:d1:
         c1:6d:6e:cb:bd:c1:4e:95:1b:e2:09:15:dc:56:fd:cb:0f:1b:
         de:38:15:0d:bf:a7:cf:a2:28:08:e6:d9:d6:3c:77:16:45:a6:
         6e:74:84:3a:e2:df:50:5d:e4:c4:b6:49:30:ae:0f:10:91:16:
         c6:c4:50:93:ae:d2:bc:fd:16:bf:76:d5:51:bd:ec:95:ee:35:
         85:32:76:cc:71:cf:38:11:73:51:cf:7e:5c:6b:79:c1:9b:1c:
         1f:4e:6a:8c:8c:af:1f:47:96:bc:83:fd:0a:13:7a:df:b2:a2:
         80:f6:d4:34:1e:2e:6e:16:fe:75:e9:ed:cd:24:ea:ac:7a:31:
         f8:c4:d5:fb:2c:13:bc:25:c6:91:c4:52:d5:e1:04:7c:25:d1:
         45:d4:06:32
-----BEGIN CERTIFICATE-----
MIIDfjCCAmagAwIBAgIRAKkyVKqUhxkaI92Vr6/vxHwwDQYJKoZIhvcNAQELBQAw
FzEVMBMGA1UEAwwMbm9ha2xhbmQuY29tMB4XDTE5MDMwNDE1MjMwNFoXDTIyMDIx
NjE1MjMwNFowGzEZMBcGA1UEAwwQdnBuLm5vYWtsYW5kLmNvbTCCASIwDQYJKoZI
hvcNAQEBBQADggEPADCCAQoCggEBALgkY+OH3kE6TZ8d8wSsJ7wa2ZEuK19Pfaca
od0XWrY5Tx8HSASo2UimzuZLxD+pZz9/Icw7RQXr50K7O8nYyt3aV8CrXs23AT0l
5kzUE06Hy3IuKFRv1UHgist9BCuk/5QiFCnZ7RNv2BflCOwX6LZkXTy7qlw2j7u/
AI06N5gAoatpjZpD9uH7TAH3Dzhi4lKStoyCY4dL1LgqYdr5d73WPeJvFndjIazC
tqOOa5S40CrssoLpH98EVxdUT8H97hBIJU96BmFfE38b/MYbe5TPDKB2U1cJKpuh
yAnu0Criv6w7y2Y4wLUS1SUatHxkyNebii1y3L80Y3PEEjM0Pz8CAwEAAaOBwDCB
vTAJBgNVHRMEAjAAMB0GA1UdDgQWBBTzguA70op4hod7khChVQQZcW3KtzBSBgNV
HSMESzBJgBRZ/CsxSPI+PA8B8yx6Tk1kEB+D5aEbpBkwFzEVMBMGA1UEAwwMbm9h
a2xhbmQuY29tghRiGVa2LZ11mqVpyyjjwYhPoRHt4DATBgNVHSUEDDAKBggrBgEF
BQcDATALBgNVHQ8EBAMCBaAwGwYDVR0RBBQwEoIQdnBuLm5vYWtsYW5kLmNvbTAN
BgkqhkiG9w0BAQsFAAOCAQEAoI5nZz0QH0nJ2h2N5LHvrvJXxKp4gBRzaz8RonCw
2Y1OZpysQVJs0VEAgiPVBZqO0R1Ajho26h9TMSGjg5ChimtVMjvUe8uXXVy0t6nq
F5r4kxAVd331Xvm4rLeTGv/un3r6T7ycHHS5P4DRwW1uy73BTpUb4gkV3Fb9yw8b
3jgVDb+nz6IoCObZ1jx3FkWmbnSEOuLfUF3kxLZJMK4PEJEWxsRQk67SvP0Wv3bV
Ub3sle41hTJ2zHHPOBFzUc9+XGt5wZscH05qjIyvH0eWvIP9ChN637KigPbUNB4u
bhb+dentzSTqrHox+MTV+ywTvCXGkcRS1eEEfCXRRdQGMg==
-----END CERTIFICATE-----
