Certificate:
    Data:
        Version: 3 (0x2)
        Serial Number:
            b5:51:3b:58:20:3f:ba:cf:c8:89:bb:8d:f8:f4:74:4b
        Signature Algorithm: sha256WithRSAEncryption
        Issuer: CN=noakland.com
        Validity
            Not Before: Mar  4 15:23:36 2019 GMT
            Not After : Feb 16 15:23:36 2022 GMT
        Subject: CN=noakland.com
        Subject Public Key Info:
            Public Key Algorithm: rsaEncryption
                RSA Public-Key: (2048 bit)
                Modulus:
                    00:e6:58:e5:af:66:bc:69:48:5f:a5:5b:c2:5e:ab:
                    4a:2d:93:7a:82:6f:0b:5a:c3:15:49:78:3b:8f:6d:
                    ef:f7:6e:17:98:f1:67:62:86:81:85:92:0a:64:5c:
                    fc:4e:f5:dc:74:70:52:7e:e0:67:77:7a:34:42:41:
                    56:0b:9e:4b:66:56:38:f7:f7:cb:f2:5e:9c:af:18:
                    6c:38:5d:5a:3a:0c:81:12:0e:23:96:c7:12:74:a0:
                    e9:a8:0f:a7:d2:8a:94:25:8c:95:e3:1e:3d:49:4c:
                    dd:4b:47:c3:d0:23:8b:8c:7c:4b:f9:36:cf:7e:d2:
                    6f:75:74:7c:c6:2f:ec:38:ae:87:5a:a1:02:4a:75:
                    b2:52:03:0b:bc:14:24:df:2c:f2:a9:6f:64:d9:d7:
                    e8:61:0e:89:84:44:78:94:6f:ce:d0:61:3f:8f:ea:
                    e4:c9:24:fe:34:f0:69:04:a0:bc:ec:f6:0e:1e:5d:
                    57:cf:8b:fb:22:f8:12:fa:fd:b4:c9:80:4c:da:bf:
                    8c:9c:ac:d5:ff:cb:fd:fa:28:b8:14:1c:c4:09:98:
                    77:55:f3:5e:55:4d:b1:a9:b9:70:13:40:bc:a2:10:
                    80:d6:ba:bd:bc:a2:48:9b:d6:24:dc:08:b3:f2:04:
                    14:1e:c5:5b:7b:6d:9b:42:62:ad:24:41:4d:2b:58:
                    8f:9d
                Exponent: 65537 (0x10001)
        X509v3 extensions:
            X509v3 Basic Constraints: 
                CA:FALSE
            X509v3 Subject Key Identifier: 
                AC:93:AC:68:E4:4E:0F:16:2D:A9:8E:24:C4:FF:7F:38:D2:0E:33:E1
            X509v3 Authority Key Identifier: 
                keyid:59:FC:2B:31:48:F2:3E:3C:0F:01:F3:2C:7A:4E:4D:64:10:1F:83:E5
                DirName:/CN=noakland.com
                serial:62:19:56:B6:2D:9D:75:9A:A5:69:CB:28:E3:C1:88:4F:A1:11:ED:E0

            X509v3 Extended Key Usage: 
                TLS Web Client Authentication
            X509v3 Key Usage: 
                Digital Signature
    Signature Algorithm: sha256WithRSAEncryption
         8e:ef:4a:aa:15:78:82:55:ac:f2:de:76:76:c9:c9:23:7a:c3:
         a2:84:6b:a0:23:5d:7e:71:44:a2:b2:ad:d0:6c:2d:22:60:31:
         85:ad:1f:c8:b2:09:7d:af:e5:cb:f9:3c:c0:d6:de:69:6c:5a:
         86:55:f3:1a:6a:cf:6d:c3:04:ba:b9:e9:42:6e:ef:c8:64:1b:
         95:08:ed:b7:34:98:b8:5f:0d:38:bd:e6:cc:4a:fc:c8:57:d5:
         7f:38:0a:ae:99:be:f7:46:67:9c:fa:2a:64:c9:dd:e8:b1:65:
         1f:6b:f5:d7:c7:63:55:d4:67:06:4d:9a:0a:d0:e2:bf:01:15:
         4f:39:ac:c4:d5:4e:a8:1c:17:92:27:27:19:07:f1:2d:a5:34:
         58:1f:d8:79:99:4c:b8:b8:fd:00:22:a7:dc:2f:0c:89:43:c8:
         5c:2c:e7:e3:3f:83:8c:5b:9f:3f:b8:7a:d0:de:80:5d:ac:aa:
         ef:4e:f9:96:1c:b4:0b:f0:66:ac:b2:8e:62:b6:c1:66:a4:f3:
         89:78:7c:20:2e:5a:26:fc:c8:89:04:23:8a:de:b9:67:0f:f1:
         5e:a3:da:26:85:40:4a:5c:f6:3d:d1:c5:89:62:ab:d8:c4:0c:
         57:70:4b:6a:7c:8a:98:7a:e7:d6:74:57:c5:b3:92:ff:84:64:
         f3:4c:fa:a6
-----BEGIN CERTIFICATE-----
MIIDXTCCAkWgAwIBAgIRALVRO1ggP7rPyIm7jfj0dEswDQYJKoZIhvcNAQELBQAw
FzEVMBMGA1UEAwwMbm9ha2xhbmQuY29tMB4XDTE5MDMwNDE1MjMzNloXDTIyMDIx
NjE1MjMzNlowFzEVMBMGA1UEAwwMbm9ha2xhbmQuY29tMIIBIjANBgkqhkiG9w0B
AQEFAAOCAQ8AMIIBCgKCAQEA5ljlr2a8aUhfpVvCXqtKLZN6gm8LWsMVSXg7j23v
924XmPFnYoaBhZIKZFz8TvXcdHBSfuBnd3o0QkFWC55LZlY49/fL8l6crxhsOF1a
OgyBEg4jlscSdKDpqA+n0oqUJYyV4x49SUzdS0fD0COLjHxL+TbPftJvdXR8xi/s
OK6HWqECSnWyUgMLvBQk3yzyqW9k2dfoYQ6JhER4lG/O0GE/j+rkyST+NPBpBKC8
7PYOHl1Xz4v7IvgS+v20yYBM2r+MnKzV/8v9+ii4FBzECZh3VfNeVU2xqblwE0C8
ohCA1rq9vKJIm9Yk3Aiz8gQUHsVbe22bQmKtJEFNK1iPnQIDAQABo4GjMIGgMAkG
A1UdEwQCMAAwHQYDVR0OBBYEFKyTrGjkTg8WLamOJMT/fzjSDjPhMFIGA1UdIwRL
MEmAFFn8KzFI8j48DwHzLHpOTWQQH4PloRukGTAXMRUwEwYDVQQDDAxub2FrbGFu
ZC5jb22CFGIZVrYtnXWapWnLKOPBiE+hEe3gMBMGA1UdJQQMMAoGCCsGAQUFBwMC
MAsGA1UdDwQEAwIHgDANBgkqhkiG9w0BAQsFAAOCAQEAju9KqhV4glWs8t52dsnJ
I3rDooRroCNdfnFEorKt0GwtImAxha0fyLIJfa/ly/k8wNbeaWxahlXzGmrPbcME
urnpQm7vyGQblQjttzSYuF8NOL3mzEr8yFfVfzgKrpm+90ZnnPoqZMnd6LFlH2v1
18djVdRnBk2aCtDivwEVTzmsxNVOqBwXkicnGQfxLaU0WB/YeZlMuLj9ACKn3C8M
iUPIXCzn4z+DjFufP7h60N6AXayq7075lhy0C/BmrLKOYrbBZqTziXh8IC5aJvzI
iQQjit65Zw/xXqPaJoVASlz2PdHFiWKr2MQMV3BLanyKmHrn1nRXxbOS/4Rk80z6
pg==
-----END CERTIFICATE-----
